target datalayout = "e-m:e-p270:32:32-p271:32:32-p272:64:64-i64:64-i128:128-f80:128-n8:16:32:64-S128"
target triple = "x86_64-pc-linux-gnu"

%"class.std::__cxx11::basic_string" = type { %"struct.std::__cxx11::basic_string<char>::_Alloc_hider", i64, %union.anon }
%"struct.std::__cxx11::basic_string<char>::_Alloc_hider" = type { ptr }
%union.anon = type { i64, [8 x i8] }
%"struct.gmx::PropagatorTag" = type { %"class.std::__cxx11::basic_string" }
%class.anon.473 = type <{ ptr, %"struct.gmx::PropagatorTag", i32, [4 x i8] }>

; Function Attrs: inlinehint mustprogress uwtable
define internal void @"_ZZN3gmx24MttkPropagatorConnection5buildEPNS_38ModularSimulatorAlgorithmBuilderHelperERKNS_13PropagatorTagES5_iS5_S5_iS5_S5_iENK3$_0clERKNS_20PropagatorConnectionE"(ptr noundef nonnull align 8 dereferenceable(44) %0, ptr noundef nonnull align 8 dereferenceable(320) %1) #5 align 2 {
  %3 = alloca ptr, align 8
  %4 = alloca ptr, align 8
  store ptr %0, ptr %3, align 8, !tbaa !223
  store ptr %1, ptr %4, align 8, !tbaa !947
  %5 = load ptr, ptr %3, align 8
  %6 = getelementptr inbounds nuw %class.anon.473, ptr %5, i32 0, i32 0
  %7 = load ptr, ptr %6, align 8, !tbaa !226
  %8 = load ptr, ptr %4, align 8, !tbaa !947
  %9 = getelementptr inbounds nuw %class.anon.473, ptr %5, i32 0, i32 1
  %10 = getelementptr inbounds nuw %class.anon.473, ptr %5, i32 0, i32 2
  %11 = load i32, ptr %10, align 8, !tbaa !232
  call void @_ZN3gmx24MttkPropagatorConnection43connectWithPropagatorPositionPreStepScalingERKNS_20PropagatorConnectionERKNS_13PropagatorTagEi(ptr noundef nonnull align 8 dereferenceable(120) %7, ptr noundef nonnull align 8 dereferenceable(320) %8, ptr noundef nonnull align 8 dereferenceable(32) %9, i32 noundef %11)
  ret void
}

; Function Attrs: mustprogress nounwind uwtable
define linkonce_odr noundef ptr @_ZNKSt9_Any_data9_M_accessEv(ptr noundef nonnull align 8 dereferenceable(16) %0) #2 comdat align 2 {
  %2 = alloca ptr, align 8
  store ptr %0, ptr %2, align 8, !tbaa !690
  %3 = load ptr, ptr %2, align 8
  %4 = getelementptr inbounds [16 x i8], ptr %3, i64 0, i64 0
  ret ptr %4
}

; Function Attrs: mustprogress uwtable
define internal void @"_ZSt13__invoke_implIvRZN3gmx24MttkPropagatorConnection5buildEPNS0_38ModularSimulatorAlgorithmBuilderHelperERKNS0_13PropagatorTagES6_iS6_S6_iS6_S6_iE3$_0JRKNS0_20PropagatorConnectionEEET_St14__invoke_otherOT0_DpOT1_"(ptr noundef nonnull align 8 dereferenceable(44) %0, ptr noundef nonnull align 8 dereferenceable(320) %1) #1 {
  %3 = alloca ptr, align 8
  %4 = alloca ptr, align 8
  store ptr %0, ptr %3, align 8, !tbaa !223
  store ptr %1, ptr %4, align 8, !tbaa !947
  %5 = load ptr, ptr %3, align 8, !tbaa !223
  %6 = load ptr, ptr %4, align 8, !tbaa !947
  call void @"_ZZN3gmx24MttkPropagatorConnection5buildEPNS_38ModularSimulatorAlgorithmBuilderHelperERKNS_13PropagatorTagES5_iS5_S5_iS5_S5_iENK3$_0clERKNS_20PropagatorConnectionE"(ptr noundef nonnull align 8 dereferenceable(44) %5, ptr noundef nonnull align 8 dereferenceable(320) %6)
  ret void
}

; Function Attrs: mustprogress nounwind uwtable
define internal noundef nonnull align 8 dereferenceable(8) ptr @"_ZNKSt9_Any_data9_M_accessIPZN3gmx24MttkPropagatorConnection5buildEPNS1_38ModularSimulatorAlgorithmBuilderHelperERKNS1_13PropagatorTagES7_iS7_S7_iS7_S7_iE3$_0EERKT_v"(ptr noundef nonnull align 8 dereferenceable(16) %0) #2 align 2 {
  %2 = alloca ptr, align 8
  store ptr %0, ptr %2, align 8, !tbaa !690
  %3 = load ptr, ptr %2, align 8
  %4 = call noundef ptr @_ZNKSt9_Any_data9_M_accessEv(ptr noundef nonnull align 8 dereferenceable(16) %3) #21
  ret ptr %4
}

; Function Attrs: mustprogress uwtable
define internal void @"_ZSt10__invoke_rIvRZN3gmx24MttkPropagatorConnection5buildEPNS0_38ModularSimulatorAlgorithmBuilderHelperERKNS0_13PropagatorTagES6_iS6_S6_iS6_S6_iE3$_0JRKNS0_20PropagatorConnectionEEENSt9enable_ifIX16is_invocable_r_vIT_T0_DpT1_EESD_E4typeEOSE_DpOSF_"(ptr noundef nonnull align 8 dereferenceable(44) %0, ptr noundef nonnull align 8 dereferenceable(320) %1) #1 {
  %3 = alloca ptr, align 8
  %4 = alloca ptr, align 8
  store ptr %0, ptr %3, align 8, !tbaa !223
  store ptr %1, ptr %4, align 8, !tbaa !947
  %5 = load ptr, ptr %3, align 8, !tbaa !223
  %6 = load ptr, ptr %4, align 8, !tbaa !947
  call void @"_ZSt13__invoke_implIvRZN3gmx24MttkPropagatorConnection5buildEPNS0_38ModularSimulatorAlgorithmBuilderHelperERKNS0_13PropagatorTagES6_iS6_S6_iS6_S6_iE3$_0JRKNS0_20PropagatorConnectionEEET_St14__invoke_otherOT0_DpOT1_"(ptr noundef nonnull align 8 dereferenceable(44) %5, ptr noundef nonnull align 8 dereferenceable(320) %6)
  ret void
}

; Function Attrs: mustprogress nounwind uwtable
define internal noundef ptr @"_ZNSt14_Function_base13_Base_managerIZN3gmx24MttkPropagatorConnection5buildEPNS1_38ModularSimulatorAlgorithmBuilderHelperERKNS1_13PropagatorTagES7_iS7_S7_iS7_S7_iE3$_0E14_M_get_pointerERKSt9_Any_data"(ptr noundef nonnull align 8 dereferenceable(16) %0) #2 align 2 {
  %2 = alloca ptr, align 8
  store ptr %0, ptr %2, align 8, !tbaa !690
  %3 = load ptr, ptr %2, align 8, !tbaa !690
  %4 = call noundef nonnull align 8 dereferenceable(8) ptr @"_ZNKSt9_Any_data9_M_accessIPZN3gmx24MttkPropagatorConnection5buildEPNS1_38ModularSimulatorAlgorithmBuilderHelperERKNS1_13PropagatorTagES7_iS7_S7_iS7_S7_iE3$_0EERKT_v"(ptr noundef nonnull align 8 dereferenceable(16) %3) #21
  %5 = load ptr, ptr %4, align 8, !tbaa !223
  ret ptr %5
}

; Function Attrs: mustprogress uwtable
define internal void @"_ZNSt17_Function_handlerIFvRKN3gmx20PropagatorConnectionEEZNS0_24MttkPropagatorConnection5buildEPNS0_38ModularSimulatorAlgorithmBuilderHelperERKNS0_13PropagatorTagESA_iSA_SA_iSA_SA_iE3$_0E9_M_invokeERKSt9_Any_dataS3_"(ptr noundef nonnull align 8 dereferenceable(16) %0, ptr noundef nonnull align 8 dereferenceable(320) %1) #1 align 2 {
  %3 = alloca ptr, align 8
  %4 = alloca ptr, align 8
  store ptr %0, ptr %3, align 8, !tbaa !690
  store ptr %1, ptr %4, align 8, !tbaa !947
  %5 = load ptr, ptr %3, align 8, !tbaa !690
  %6 = call noundef ptr @"_ZNSt14_Function_base13_Base_managerIZN3gmx24MttkPropagatorConnection5buildEPNS1_38ModularSimulatorAlgorithmBuilderHelperERKNS1_13PropagatorTagES7_iS7_S7_iS7_S7_iE3$_0E14_M_get_pointerERKSt9_Any_data"(ptr noundef nonnull align 8 dereferenceable(16) %5) #21
  %7 = load ptr, ptr %4, align 8, !tbaa !947
  call void @"_ZSt10__invoke_rIvRZN3gmx24MttkPropagatorConnection5buildEPNS0_38ModularSimulatorAlgorithmBuilderHelperERKNS0_13PropagatorTagES6_iS6_S6_iS6_S6_iE3$_0JRKNS0_20PropagatorConnectionEEENSt9enable_ifIX16is_invocable_r_vIT_T0_DpT1_EESD_E4typeEOSE_DpOSF_"(ptr noundef nonnull align 8 dereferenceable(44) %6, ptr noundef nonnull align 8 dereferenceable(320) %7)
  ret void
}